target datalayout = "e-m:e-p270:32:32-p271:32:32-p272:64:64-i64:64-i128:128-f80:128-n8:16:32:64-S128"
target triple = "x86_64-pc-linux-gnu"

%struct.dlist_head = type { %struct.dlist_node }
%struct.dlist_node = type { ptr, ptr }
%struct.LWLock = type { i16, %struct.pg_atomic_uint32, %struct.proclist_head }
%struct.pg_atomic_uint32 = type { i32 }
%struct.proclist_head = type { i32, i32 }
%struct.PGPROC = type { %struct.dlist_node, ptr, ptr, i32, %struct.Latch, i32, i32, i32, i32, %struct.anon, i32, i32, i32, i8, i8, i8, i8, %struct.proclist_node, %struct.proclist_node, ptr, ptr, i32, i32, %struct.pg_atomic_uint64, i32, i8, i64, i32, %struct.dlist_node, [16 x %struct.dlist_head], %struct.XidCacheStatus, %struct.XidCache, i8, %struct.pg_atomic_uint32, i32, i32, i8, %struct.pg_atomic_uint32, i32, i32, i64, i64, %struct.LWLock, ptr, ptr, i8, i32, ptr, %struct.dlist_head, %struct.dlist_node }
%struct.Latch = type { i32, i32, i8, i32 }
%struct.anon = type { i32, i32 }
%struct.proclist_node = type { i32, i32 }
%struct.pg_atomic_uint64 = type { i64 }
%struct.XidCacheStatus = type { i8, i8 }
%struct.XidCache = type { [64 x i32] }
%struct.VirtualTransactionId = type { i32, i32 }

@MyProc = external global ptr, align 8

; Function Attrs: nounwind uwtable
define dso_local void @VirtualXactLockTableInsert(i64 %0) #0 {
  %2 = alloca %struct.VirtualTransactionId, align 4
  store i64 %0, ptr %2, align 4
  %3 = load ptr, ptr @MyProc, align 8
  %4 = getelementptr inbounds nuw %struct.PGPROC, ptr %3, i32 0, i32 42
  %5 = call zeroext i1 @LWLockAcquire(ptr noundef %4, i32 noundef 0)
  %6 = load ptr, ptr @MyProc, align 8
  %7 = getelementptr inbounds nuw %struct.PGPROC, ptr %6, i32 0, i32 45
  store i8 1, ptr %7, align 8
  %8 = getelementptr inbounds nuw %struct.VirtualTransactionId, ptr %2, i32 0, i32 1
  %9 = load i32, ptr %8, align 4
  %10 = load ptr, ptr @MyProc, align 8
  %11 = getelementptr inbounds nuw %struct.PGPROC, ptr %10, i32 0, i32 46
  store i32 %9, ptr %11, align 4
  %12 = load ptr, ptr @MyProc, align 8
  %13 = getelementptr inbounds nuw %struct.PGPROC, ptr %12, i32 0, i32 42
  call void @LWLockRelease(ptr noundef %13)
  ret void
}