; Function Attrs: nounwind uwtable
define dso_local void @VirtualXactLockTableInsert(i64 %0) local_unnamed_addr #0 {
  %.sroa.1.0.extract.shift = lshr i64 %0, 32
  %.sroa.1.0.extract.trunc = trunc nuw i64 %.sroa.1.0.extract.shift to i32
  %2 = load ptr, ptr @MyProc, align 8
  %3 = getelementptr inbounds nuw i8, ptr %2, i64 752
  %4 = tail call zeroext i1 @LWLockAcquire(ptr noundef nonnull %3, i32 noundef 0) #17
  %5 = load ptr, ptr @MyProc, align 8
  %6 = getelementptr inbounds nuw i8, ptr %5, i64 784
  store i8 1, ptr %6, align 8
  %7 = getelementptr inbounds nuw i8, ptr %5, i64 788
  store i32 %.sroa.1.0.extract.trunc, ptr %7, align 4
  %8 = getelementptr inbounds nuw i8, ptr %5, i64 752
  tail call void @LWLockRelease(ptr noundef nonnull %8) #17
  ret void
}